#include <math.h>
#include <stdio.h>
#include <stdlib.h>
#include <string.h>


int main()
{
 char s[100],a[100],b[100];
 int i,j,l,m,e=0;
 char *str;
 
 memset(s,0,100);
 memset(a,0,100);
 memset(b,0,100);

 gets(s);
 scanf("%s",a);
 scanf("%s",b);

 l=strlen(a);
 m=strlen(s);
 str=s;

 for(i=0;i<=m-l;i++)
 {//???????
  e=0;
  for(j=0;j<l;j++)
  {
       if(s[i+j]!=a[j])
       {
        e++;
        break;
       }
  }
    //e???0,???a??

  if(e==0)
  {
   s[i]='\0';
   printf("%s",str);
   printf("%s",b);
   str=s+i+j;
   break;
  }

 }
 printf("%s",str);
 return 0;
}
