; ModuleID = '7/118.c'
source_filename = "7/118.c"
target datalayout = "e-m:e-p270:32:32-p271:32:32-p272:64:64-i64:64-f80:128-n8:16:32:64-S128"
target triple = "x86_64-pc-linux-gnu"

@.str = private unnamed_addr constant [3 x i8] c"%s\00", align 1

; Function Attrs: noinline nounwind uwtable
define dso_local i32 @main() #0 {
  %1 = alloca i32, align 4
  %2 = alloca [100 x i8], align 16
  %3 = alloca [100 x i8], align 16
  %4 = alloca [100 x i8], align 16
  %5 = alloca i32, align 4
  %6 = alloca i32, align 4
  %7 = alloca i32, align 4
  %8 = alloca i32, align 4
  %9 = alloca i32, align 4
  %10 = alloca i8*, align 8
  store i32 0, i32* %1, align 4
  store i32 0, i32* %9, align 4
  %11 = getelementptr inbounds [100 x i8], [100 x i8]* %2, i64 0, i64 0
  call void @llvm.memset.p0i8.i64(i8* align 16 %11, i8 0, i64 100, i1 false)
  %12 = getelementptr inbounds [100 x i8], [100 x i8]* %3, i64 0, i64 0
  call void @llvm.memset.p0i8.i64(i8* align 16 %12, i8 0, i64 100, i1 false)
  %13 = getelementptr inbounds [100 x i8], [100 x i8]* %4, i64 0, i64 0
  call void @llvm.memset.p0i8.i64(i8* align 16 %13, i8 0, i64 100, i1 false)
  %14 = getelementptr inbounds [100 x i8], [100 x i8]* %2, i64 0, i64 0
  %15 = call i32 (i8*, ...) bitcast (i32 (...)* @gets to i32 (i8*, ...)*)(i8* %14)
  %16 = getelementptr inbounds [100 x i8], [100 x i8]* %3, i64 0, i64 0
  %17 = call i32 (i8*, ...) @__isoc99_scanf(i8* getelementptr inbounds ([3 x i8], [3 x i8]* @.str, i64 0, i64 0), i8* %16)
  %18 = getelementptr inbounds [100 x i8], [100 x i8]* %4, i64 0, i64 0
  %19 = call i32 (i8*, ...) @__isoc99_scanf(i8* getelementptr inbounds ([3 x i8], [3 x i8]* @.str, i64 0, i64 0), i8* %18)
  %20 = getelementptr inbounds [100 x i8], [100 x i8]* %3, i64 0, i64 0
  %21 = call i64 @strlen(i8* %20) #4
  %22 = trunc i64 %21 to i32
  store i32 %22, i32* %7, align 4
  %23 = getelementptr inbounds [100 x i8], [100 x i8]* %2, i64 0, i64 0
  %24 = call i64 @strlen(i8* %23) #4
  %25 = trunc i64 %24 to i32
  store i32 %25, i32* %8, align 4
  %26 = getelementptr inbounds [100 x i8], [100 x i8]* %2, i64 0, i64 0
  store i8* %26, i8** %10, align 8
  store i32 0, i32* %5, align 4
  br label %27

27:                                               ; preds = %78, %0
  %28 = load i32, i32* %5, align 4
  %29 = load i32, i32* %8, align 4
  %30 = load i32, i32* %7, align 4
  %31 = sub nsw i32 %29, %30
  %32 = icmp sle i32 %28, %31
  br i1 %32, label %33, label %81

33:                                               ; preds = %27
  store i32 0, i32* %9, align 4
  store i32 0, i32* %6, align 4
  br label %34

34:                                               ; preds = %56, %33
  %35 = load i32, i32* %6, align 4
  %36 = load i32, i32* %7, align 4
  %37 = icmp slt i32 %35, %36
  br i1 %37, label %38, label %59

38:                                               ; preds = %34
  %39 = load i32, i32* %5, align 4
  %40 = load i32, i32* %6, align 4
  %41 = add nsw i32 %39, %40
  %42 = sext i32 %41 to i64
  %43 = getelementptr inbounds [100 x i8], [100 x i8]* %2, i64 0, i64 %42
  %44 = load i8, i8* %43, align 1
  %45 = sext i8 %44 to i32
  %46 = load i32, i32* %6, align 4
  %47 = sext i32 %46 to i64
  %48 = getelementptr inbounds [100 x i8], [100 x i8]* %3, i64 0, i64 %47
  %49 = load i8, i8* %48, align 1
  %50 = sext i8 %49 to i32
  %51 = icmp ne i32 %45, %50
  br i1 %51, label %52, label %55

52:                                               ; preds = %38
  %53 = load i32, i32* %9, align 4
  %54 = add nsw i32 %53, 1
  store i32 %54, i32* %9, align 4
  br label %59

55:                                               ; preds = %38
  br label %56

56:                                               ; preds = %55
  %57 = load i32, i32* %6, align 4
  %58 = add nsw i32 %57, 1
  store i32 %58, i32* %6, align 4
  br label %34

59:                                               ; preds = %52, %34
  %60 = load i32, i32* %9, align 4
  %61 = icmp eq i32 %60, 0
  br i1 %61, label %62, label %77

62:                                               ; preds = %59
  %63 = load i32, i32* %5, align 4
  %64 = sext i32 %63 to i64
  %65 = getelementptr inbounds [100 x i8], [100 x i8]* %2, i64 0, i64 %64
  store i8 0, i8* %65, align 1
  %66 = load i8*, i8** %10, align 8
  %67 = call i32 (i8*, ...) @printf(i8* getelementptr inbounds ([3 x i8], [3 x i8]* @.str, i64 0, i64 0), i8* %66)
  %68 = getelementptr inbounds [100 x i8], [100 x i8]* %4, i64 0, i64 0
  %69 = call i32 (i8*, ...) @printf(i8* getelementptr inbounds ([3 x i8], [3 x i8]* @.str, i64 0, i64 0), i8* %68)
  %70 = getelementptr inbounds [100 x i8], [100 x i8]* %2, i64 0, i64 0
  %71 = load i32, i32* %5, align 4
  %72 = sext i32 %71 to i64
  %73 = getelementptr inbounds i8, i8* %70, i64 %72
  %74 = load i32, i32* %6, align 4
  %75 = sext i32 %74 to i64
  %76 = getelementptr inbounds i8, i8* %73, i64 %75
  store i8* %76, i8** %10, align 8
  br label %81

77:                                               ; preds = %59
  br label %78

78:                                               ; preds = %77
  %79 = load i32, i32* %5, align 4
  %80 = add nsw i32 %79, 1
  store i32 %80, i32* %5, align 4
  br label %27

81:                                               ; preds = %62, %27
  %82 = load i8*, i8** %10, align 8
  %83 = call i32 (i8*, ...) @printf(i8* getelementptr inbounds ([3 x i8], [3 x i8]* @.str, i64 0, i64 0), i8* %82)
  ret i32 0
}

; Function Attrs: argmemonly nounwind willreturn
declare void @llvm.memset.p0i8.i64(i8* nocapture writeonly, i8, i64, i1 immarg) #1

declare dso_local i32 @gets(...) #2

declare dso_local i32 @__isoc99_scanf(i8*, ...) #2

; Function Attrs: nounwind readonly
declare dso_local i64 @strlen(i8*) #3

declare dso_local i32 @printf(i8*, ...) #2


!llvm.module.flags = !{!0}
!llvm.ident = !{!1}

!0 = !{i32 1, !"wchar_size", i32 4}
!1 = !{!"clang version 10.0.0-4ubuntu1 "}
